; ModuleID = '43/134.c'
source_filename = "43/134.c"
target datalayout = "e-m:e-p270:32:32-p271:32:32-p272:64:64-i64:64-f80:128-n8:16:32:64-S128"
target triple = "x86_64-pc-linux-gnu"

@.str = private unnamed_addr constant [3 x i8] c"%d\00", align 1
@.str.1 = private unnamed_addr constant [7 x i8] c"%d %d\0A\00", align 1

; Function Attrs: noinline nounwind uwtable
define dso_local i32 @f(i32 %0) #0 {
  %2 = alloca i32, align 4
  %3 = alloca i32, align 4
  %4 = alloca i32, align 4
  %5 = alloca i32, align 4
  store i32 %0, i32* %3, align 4
  %6 = load i32, i32* %3, align 4
  %7 = sitofp i32 %6 to float
  %8 = fpext float %7 to double
  %9 = call double @sqrt(double %8) #3
  %10 = fptrunc double %9 to float
  %11 = fptosi float %10 to i32
  store i32 %11, i32* %5, align 4
  store i32 2, i32* %4, align 4
  br label %12

12:                                               ; preds = %23, %1
  %13 = load i32, i32* %4, align 4
  %14 = load i32, i32* %5, align 4
  %15 = icmp sle i32 %13, %14
  br i1 %15, label %16, label %26

16:                                               ; preds = %12
  %17 = load i32, i32* %3, align 4
  %18 = load i32, i32* %4, align 4
  %19 = srem i32 %17, %18
  %20 = icmp eq i32 %19, 0
  br i1 %20, label %21, label %22

21:                                               ; preds = %16
  br label %26

22:                                               ; preds = %16
  br label %23

23:                                               ; preds = %22
  %24 = load i32, i32* %4, align 4
  %25 = add nsw i32 %24, 1
  store i32 %25, i32* %4, align 4
  br label %12

26:                                               ; preds = %21, %12
  %27 = load i32, i32* %4, align 4
  %28 = load i32, i32* %5, align 4
  %29 = add nsw i32 %28, 1
  %30 = icmp eq i32 %27, %29
  br i1 %30, label %31, label %32

31:                                               ; preds = %26
  store i32 1, i32* %2, align 4
  br label %32

32:                                               ; preds = %31, %26
  %33 = load i32, i32* %2, align 4
  ret i32 %33
}

; Function Attrs: nounwind
declare dso_local double @sqrt(double) #1

; Function Attrs: noinline nounwind uwtable
define dso_local i32 @main() #0 {
  %1 = alloca i32, align 4
  %2 = alloca i32, align 4
  %3 = alloca i32, align 4
  store i32 0, i32* %1, align 4
  %4 = call i32 (i8*, ...) @__isoc99_scanf(i8* getelementptr inbounds ([3 x i8], [3 x i8]* @.str, i64 0, i64 0), i32* %2)
  %5 = load i32, i32* %2, align 4
  %6 = srem i32 %5, 2
  %7 = icmp ne i32 %6, 0
  br i1 %7, label %8, label %9

8:                                                ; preds = %0
  store i32 0, i32* %1, align 4
  br label %37

9:                                                ; preds = %0
  store i32 3, i32* %3, align 4
  br label %10

10:                                               ; preds = %32, %9
  %11 = load i32, i32* %3, align 4
  %12 = load i32, i32* %2, align 4
  %13 = sdiv i32 %12, 2
  %14 = icmp sle i32 %11, %13
  br i1 %14, label %15, label %35

15:                                               ; preds = %10
  %16 = load i32, i32* %3, align 4
  %17 = call i32 @f(i32 %16)
  %18 = icmp eq i32 %17, 1
  br i1 %18, label %19, label %31

19:                                               ; preds = %15
  %20 = load i32, i32* %2, align 4
  %21 = load i32, i32* %3, align 4
  %22 = sub nsw i32 %20, %21
  %23 = call i32 @f(i32 %22)
  %24 = icmp eq i32 %23, 1
  br i1 %24, label %25, label %31

25:                                               ; preds = %19
  %26 = load i32, i32* %3, align 4
  %27 = load i32, i32* %2, align 4
  %28 = load i32, i32* %3, align 4
  %29 = sub nsw i32 %27, %28
  %30 = call i32 (i8*, ...) @printf(i8* getelementptr inbounds ([7 x i8], [7 x i8]* @.str.1, i64 0, i64 0), i32 %26, i32 %29)
  br label %31

31:                                               ; preds = %25, %19, %15
  br label %32

32:                                               ; preds = %31
  %33 = load i32, i32* %3, align 4
  %34 = add nsw i32 %33, 2
  store i32 %34, i32* %3, align 4
  br label %10

35:                                               ; preds = %10
  br label %36

36:                                               ; preds = %35
  store i32 0, i32* %1, align 4
  br label %37

37:                                               ; preds = %36, %8
  %38 = load i32, i32* %1, align 4
  ret i32 %38
}

declare dso_local i32 @__isoc99_scanf(i8*, ...) #2

declare dso_local i32 @printf(i8*, ...) #2


!llvm.module.flags = !{!0}
!llvm.ident = !{!1}

!0 = !{i32 1, !"wchar_size", i32 4}
!1 = !{!"clang version 10.0.0-4ubuntu1 "}
