; ModuleID = 'source-C-CXX/42/134.c'
source_filename = "source-C-CXX/42/134.c"
target datalayout = "e-m:e-p270:32:32-p271:32:32-p272:64:64-i64:64-f80:128-n8:16:32:64-S128"
target triple = "x86_64-pc-linux-gnu"

@.str = private unnamed_addr constant [3 x i8] c"%d\00", align 1
@.str.1 = private unnamed_addr constant [7 x i8] c"%d %d\0A\00", align 1

; Function Attrs: nofree nounwind sspstrong uwtable
define dso_local i32 @f(i32 %0) local_unnamed_addr #0 {
  %2 = sitofp i32 %0 to float
  %3 = tail call float @sqrtf(float %2) #3
  ret i32 1
}

; Function Attrs: argmemonly mustprogress nofree nosync nounwind willreturn
declare void @llvm.lifetime.start.p0i8(i64 immarg, i8* nocapture) #1

; Function Attrs: argmemonly mustprogress nofree nosync nounwind willreturn
declare void @llvm.lifetime.end.p0i8(i64 immarg, i8* nocapture) #1

; Function Attrs: nofree nounwind sspstrong uwtable
define dso_local i32 @main() local_unnamed_addr #0 {
  %1 = alloca i32, align 4
  %2 = bitcast i32* %1 to i8*
  call void @llvm.lifetime.start.p0i8(i64 4, i8* nonnull %2) #4
  %3 = call i32 (i8*, ...) @__isoc99_scanf(i8* getelementptr inbounds ([3 x i8], [3 x i8]* @.str, i64 0, i64 0), i32* nonnull %1)
  %4 = load i32, i32* %1, align 4, !tbaa !5
  %5 = and i32 %4, 1
  %6 = icmp ne i32 %5, 0
  %7 = icmp slt i32 %4, 6
  %8 = or i1 %6, %7
  br i1 %8, label %26, label %9

9:                                                ; preds = %0, %19
  %10 = phi i32 [ %23, %19 ], [ %4, %0 ]
  %11 = phi i32 [ %22, %19 ], [ 3, %0 ]
  %12 = sub nsw i32 %10, %11
  %13 = icmp slt i32 %12, 0
  br i1 %13, label %14, label %19, !prof !9

14:                                               ; preds = %9
  %15 = sitofp i32 %12 to float
  %16 = call float @sqrtf(float %15) #3
  %17 = load i32, i32* %1, align 4, !tbaa !5
  %18 = sub nsw i32 %17, %11
  br label %19

19:                                               ; preds = %9, %14
  %20 = phi i32 [ %12, %9 ], [ %18, %14 ]
  %21 = call i32 (i8*, ...) @printf(i8* nonnull dereferenceable(1) getelementptr inbounds ([7 x i8], [7 x i8]* @.str.1, i64 0, i64 0), i32 %11, i32 %20)
  %22 = add nuw nsw i32 %11, 2
  %23 = load i32, i32* %1, align 4, !tbaa !5
  %24 = sdiv i32 %23, 2
  %25 = icmp sgt i32 %22, %24
  br i1 %25, label %26, label %9, !llvm.loop !10

26:                                               ; preds = %19, %0
  call void @llvm.lifetime.end.p0i8(i64 4, i8* nonnull %2) #4
  ret i32 0
}

; Function Attrs: nofree nounwind
declare noundef i32 @__isoc99_scanf(i8* nocapture noundef readonly, ...) local_unnamed_addr #2

; Function Attrs: nofree nounwind
declare noundef i32 @printf(i8* nocapture noundef readonly, ...) local_unnamed_addr #2

declare float @sqrtf(float) local_unnamed_addr


!llvm.module.flags = !{!0, !1, !2, !3}
!llvm.ident = !{!4}

!0 = !{i32 1, !"wchar_size", i32 4}
!1 = !{i32 7, !"PIC Level", i32 2}
!2 = !{i32 7, !"PIE Level", i32 2}
!3 = !{i32 7, !"uwtable", i32 1}
!4 = !{!"clang version 13.0.0"}
!5 = !{!6, !6, i64 0}
!6 = !{!"int", !7, i64 0}
!7 = !{!"omnipotent char", !8, i64 0}
!8 = !{!"Simple C/C++ TBAA"}
!9 = !{!"branch_weights", i32 1, i32 2000}
!10 = distinct !{!10, !11}
!11 = !{!"llvm.loop.mustprogress"}
